target datalayout = "e-m:e-p270:32:32-p271:32:32-p272:64:64-i64:64-i128:128-f80:128-n8:16:32:64-S128"
target triple = "x86_64-pc-linux-gnu"

%struct.KINMemRec = type { ptr, double, ptr, ptr, double, double, i32, i64, i64, i64, i64, i32, i32, i32, i32, i32, i32, i32, i32, double, double, double, double, double, double, double, double, double, i32, double, i64, i64, i64, i64, i64, i64, i64, ptr, ptr, ptr, ptr, ptr, ptr, ptr, ptr, ptr, ptr, ptr, i32, i32, double, ptr, ptr, ptr, ptr, ptr, double, ptr, ptr, ptr, ptr, i64, i64, i32, ptr, ptr, i32, ptr, ptr, i64, i64, i64, i64, ptr, ptr, ptr, ptr, i32, ptr, double, double, double, double, double, i32, double, double, double, i32 }

@.str = private unnamed_addr constant [118 x i8] c"generated/home/dtcxzyw/WorkSpace/Projects/compilers/llvm-opt-benchmark/bench/sundials/sundials/src/kinsol/kinsol_io.c\00", align 1
@.str.1 = private unnamed_addr constant [27 x i8] c"kinsol_mem = NULL illegal.\00", align 1
@__func__.KINSetDamping = private unnamed_addr constant [14 x i8] c"KINSetDamping\00", align 1
@.str.2 = private unnamed_addr constant [18 x i8] c"beta <= 0 illegal\00", align 1

; Function Attrs: nounwind uwtable
define i32 @KINSetDamping(ptr noundef %0, double noundef %1) #0 {
  %3 = alloca i32, align 4
  %4 = alloca ptr, align 8
  %5 = alloca double, align 8
  %6 = alloca ptr, align 8
  %7 = alloca i32, align 4
  store ptr %0, ptr %4, align 8, !tbaa !3
  store double %1, ptr %5, align 8, !tbaa !20
  call void @llvm.lifetime.start.p0(i64 8, ptr %6) #5
  %8 = load ptr, ptr %4, align 8, !tbaa !3
  %9 = icmp eq ptr %8, null
  br i1 %9, label %10, label %11

10:                                               ; preds = %2
  call void (ptr, i32, i32, ptr, ptr, ptr, ...) @KINProcessError(ptr noundef null, i32 noundef -1, i32 noundef 78, ptr noundef @__func__.KINSetDamping, ptr noundef @.str, ptr noundef @.str.1)
  store i32 -1, ptr %3, align 4
  store i32 1, ptr %7, align 4
  br label %32

11:                                               ; preds = %2
  %12 = load ptr, ptr %4, align 8, !tbaa !3
  store ptr %12, ptr %6, align 8, !tbaa !7
  %13 = load double, ptr %5, align 8, !tbaa !20
  %14 = fcmp ole double %13, 0.000000e+00
  br i1 %14, label %15, label %17

15:                                               ; preds = %11
  %16 = load ptr, ptr %6, align 8, !tbaa !7
  call void (ptr, i32, i32, ptr, ptr, ptr, ...) @KINProcessError(ptr noundef %16, i32 noundef -2, i32 noundef 87, ptr noundef @__func__.KINSetDamping, ptr noundef @.str, ptr noundef @.str.2)
  store i32 -2, ptr %3, align 4
  store i32 1, ptr %7, align 4
  br label %32

17:                                               ; preds = %11
  %18 = load double, ptr %5, align 8, !tbaa !20
  %19 = fcmp olt double %18, 1.000000e+00
  br i1 %19, label %20, label %26

20:                                               ; preds = %17
  %21 = load double, ptr %5, align 8, !tbaa !20
  %22 = load ptr, ptr %6, align 8, !tbaa !7
  %23 = getelementptr inbounds nuw %struct.KINMemRec, ptr %22, i32 0, i32 50
  store double %21, ptr %23, align 8, !tbaa !21
  %24 = load ptr, ptr %6, align 8, !tbaa !7
  %25 = getelementptr inbounds nuw %struct.KINMemRec, ptr %24, i32 0, i32 49
  store i32 1, ptr %25, align 4, !tbaa !22
  br label %31

26:                                               ; preds = %17
  %27 = load ptr, ptr %6, align 8, !tbaa !7
  %28 = getelementptr inbounds nuw %struct.KINMemRec, ptr %27, i32 0, i32 50
  store double 1.000000e+00, ptr %28, align 8, !tbaa !21
  %29 = load ptr, ptr %6, align 8, !tbaa !7
  %30 = getelementptr inbounds nuw %struct.KINMemRec, ptr %29, i32 0, i32 49
  store i32 0, ptr %30, align 4, !tbaa !22
  br label %31

31:                                               ; preds = %26, %20
  store i32 0, ptr %3, align 4
  store i32 1, ptr %7, align 4
  br label %32

32:                                               ; preds = %31, %15, %10
  call void @llvm.lifetime.end.p0(i64 8, ptr %6) #5
  %33 = load i32, ptr %3, align 4
  ret i32 %33
}