; Function Attrs: nounwind uwtable
define range(i32 -2, 1) i32 @KINSetDamping(ptr noundef %0, double noundef %1) local_unnamed_addr #0 {
  %3 = icmp eq ptr %0, null
  br i1 %3, label %4, label %5

4:                                                ; preds = %2
  tail call void (ptr, i32, i32, ptr, ptr, ptr, ...) @KINProcessError(ptr noundef null, i32 noundef -1, i32 noundef 78, ptr noundef nonnull @__func__.KINSetDamping, ptr noundef nonnull @.str, ptr noundef nonnull @.str.1) #9
  br label %14

5:                                                ; preds = %2
  %6 = fcmp ugt double %1, 0.000000e+00
  br i1 %6, label %8, label %7

7:                                                ; preds = %5
  tail call void (ptr, i32, i32, ptr, ptr, ptr, ...) @KINProcessError(ptr noundef nonnull %0, i32 noundef -2, i32 noundef 87, ptr noundef nonnull @__func__.KINSetDamping, ptr noundef nonnull @.str, ptr noundef nonnull @.str.2) #9
  br label %14

8:                                                ; preds = %5
  %9 = fcmp olt double %1, 1.000000e+00
  %10 = getelementptr inbounds nuw i8, ptr %0, i64 360
  %11 = getelementptr inbounds nuw i8, ptr %0, i64 356
  br i1 %9, label %12, label %13

12:                                               ; preds = %8
  store double %1, ptr %10, align 8, !tbaa !17
  store i32 1, ptr %11, align 4, !tbaa !18
  br label %14

13:                                               ; preds = %8
  store double 1.000000e+00, ptr %10, align 8, !tbaa !17
  store i32 0, ptr %11, align 4, !tbaa !18
  br label %14

14:                                               ; preds = %12, %13, %7, %4
  %.0 = phi i32 [ -1, %4 ], [ -2, %7 ], [ 0, %13 ], [ 0, %12 ]
  ret i32 %.0
}